target datalayout = "e-m:e-p270:32:32-p271:32:32-p272:64:64-i64:64-i128:128-f80:128-n8:16:32:64-S128"
target triple = "x86_64-pc-linux-gnu"

@dry_run = external global i8, align 1
@datadir_target = external global ptr, align 8
@.str = private unnamed_addr constant [6 x i8] c"%s/%s\00", align 1
@.str.7 = private unnamed_addr constant [31 x i8] c"could not remove file \22%s\22: %m\00", align 1

; Function Attrs: nounwind uwtable
define dso_local void @remove_target_file(ptr noundef %0, i1 noundef zeroext %1) #0 {
  %3 = alloca ptr, align 8
  %4 = alloca i8, align 1
  %5 = alloca [1024 x i8], align 16
  %6 = alloca i32, align 4
  store ptr %0, ptr %3, align 8
  %7 = zext i1 %1 to i8
  store i8 %7, ptr %4, align 1
  call void @llvm.lifetime.start.p0(i64 1024, ptr %5) #7
  %8 = load i8, ptr @dry_run, align 1, !range !4, !noundef !5
  %9 = trunc i8 %8 to i1
  br i1 %9, label %10, label %11

10:                                               ; preds = %2
  store i32 1, ptr %6, align 4
  br label %33

11:                                               ; preds = %2
  %12 = getelementptr inbounds [1024 x i8], ptr %5, i64 0, i64 0
  %13 = load ptr, ptr @datadir_target, align 8
  %14 = load ptr, ptr %3, align 8
  %15 = call i32 (ptr, i64, ptr, ...) @pg_snprintf(ptr noundef %12, i64 noundef 1024, ptr noundef @.str, ptr noundef %13, ptr noundef %14)
  %16 = getelementptr inbounds [1024 x i8], ptr %5, i64 0, i64 0
  %17 = call i32 @unlink(ptr noundef %16) #7
  %18 = icmp ne i32 %17, 0
  br i1 %18, label %19, label %32

19:                                               ; preds = %11
  %20 = call ptr @__errno_location() #10
  %21 = load i32, ptr %20, align 4
  %22 = icmp eq i32 %21, 2
  br i1 %22, label %23, label %27

23:                                               ; preds = %19
  %24 = load i8, ptr %4, align 1, !range !4, !noundef !5
  %25 = trunc i8 %24 to i1
  br i1 %25, label %26, label %27

26:                                               ; preds = %23
  store i32 1, ptr %6, align 4
  br label %33

27:                                               ; preds = %23, %19
  br label %28

28:                                               ; preds = %27
  %29 = getelementptr inbounds [1024 x i8], ptr %5, i64 0, i64 0
  call void (i32, i32, ptr, ...) @pg_log_generic(i32 noundef 4, i32 noundef 0, ptr noundef @.str.7, ptr noundef %29)
  call void @exit(i32 noundef 1) #9
  unreachable

30:                                               ; No predecessors!
  br label %31

31:                                               ; preds = %30
  br label %32

32:                                               ; preds = %31, %11
  store i32 0, ptr %6, align 4
  br label %33

33:                                               ; preds = %32, %26, %10
  call void @llvm.lifetime.end.p0(i64 1024, ptr %5) #7
  %34 = load i32, ptr %6, align 4
  switch i32 %34, label %36 [
    i32 0, label %35
    i32 1, label %35
  ]

35:                                               ; preds = %33, %33
  ret void

36:                                               ; preds = %33
  unreachable
}