; Function Attrs: nounwind uwtable
define dso_local void @remove_target_file(ptr noundef %0, i1 noundef zeroext %1) local_unnamed_addr #0 {
  %3 = alloca [1024 x i8], align 16
  call void @llvm.lifetime.start.p0(i64 1024, ptr nonnull %3) #11
  %4 = load i8, ptr @dry_run, align 1, !range !4, !noundef !5
  %5 = trunc nuw i8 %4 to i1
  br i1 %5, label %15, label %6

6:                                                ; preds = %2
  %7 = load ptr, ptr @datadir_target, align 8
  %8 = call i32 (ptr, i64, ptr, ...) @pg_snprintf(ptr noundef nonnull %3, i64 noundef 1024, ptr noundef nonnull @.str, ptr noundef %7, ptr noundef %0) #11
  %9 = call i32 @unlink(ptr noundef nonnull %3) #11
  %.not = icmp eq i32 %9, 0
  br i1 %.not, label %15, label %10

10:                                               ; preds = %6
  %11 = tail call ptr @__errno_location() #13
  %12 = load i32, ptr %11, align 4
  %13 = icmp eq i32 %12, 2
  %brmerge.not = and i1 %1, %13
  br i1 %brmerge.not, label %15, label %14

14:                                               ; preds = %10
  call void (i32, i32, ptr, ...) @pg_log_generic(i32 noundef 4, i32 noundef 0, ptr noundef nonnull @.str.7, ptr noundef nonnull %3) #11
  call void @exit(i32 noundef 1) #12
  unreachable

15:                                               ; preds = %6, %10, %2
  call void @llvm.lifetime.end.p0(i64 1024, ptr nonnull %3) #11
  ret void
}